target datalayout = "e-m:e-p270:32:32-p271:32:32-p272:64:64-i64:64-i128:128-f80:128-n8:16:32:64-S128"
target triple = "x86_64-pc-linux-gnu"

@zueci_iso8859_5_s = internal constant [6 x i16] [i16 8193, i16 0, i16 0, i16 0, i16 0, i16 0], align 2
@zueci_iso8859_5_sb_u = internal constant [96 x i8] c"\FF\01\02\03\04\05\06\07\08\09\0A\0B\0C\FF\0D\0E\0F\10\11\12\13\14\15\16\17\18\19\1A\1B\1C\1D\1E\1F !\22#$%&'()*+,-./0123456789:;<=>?@ABCDEFGHIJKLMN]OPQRSTUVWXYZ\00[\\", align 16

; Function Attrs: nounwind uwtable
define internal i32 @zueci_iso8859_u(i8 noundef zeroext %0, i32 noundef %1, ptr noundef %2, ptr noundef %3, ptr noundef %4, i32 noundef %5, ptr noundef %6) #0 {
  %8 = alloca i32, align 4
  %9 = alloca i8, align 1
  %10 = alloca i32, align 4
  %11 = alloca ptr, align 8
  %12 = alloca ptr, align 8
  %13 = alloca ptr, align 8
  %14 = alloca i32, align 4
  %15 = alloca ptr, align 8
  %16 = alloca i8, align 1
  %17 = alloca i32, align 4
  store i8 %0, ptr %9, align 1
  store i32 %1, ptr %10, align 4
  store ptr %2, ptr %11, align 8
  store ptr %3, ptr %12, align 8
  store ptr %4, ptr %13, align 8
  store i32 %5, ptr %14, align 4
  store ptr %6, ptr %15, align 8
  %18 = load i8, ptr %9, align 1
  %19 = zext i8 %18 to i32
  %20 = icmp slt i32 %19, 160
  br i1 %20, label %21, label %34

21:                                               ; preds = %7
  %22 = load i8, ptr %9, align 1
  %23 = zext i8 %22 to i32
  %24 = icmp sge i32 %23, 128
  br i1 %24, label %25, label %30

25:                                               ; preds = %21
  %26 = load i32, ptr %10, align 4
  %27 = and i32 %26, 1
  %28 = icmp ne i32 %27, 0
  br i1 %28, label %30, label %29

29:                                               ; preds = %25
  store i32 0, ptr %8, align 4
  br label %87

30:                                               ; preds = %25, %21
  %31 = load i8, ptr %9, align 1
  %32 = zext i8 %31 to i32
  %33 = load ptr, ptr %15, align 8
  store i32 %32, ptr %33, align 4
  store i32 1, ptr %8, align 4
  br label %87

34:                                               ; preds = %7
  %35 = load i8, ptr %9, align 1
  %36 = zext i8 %35 to i32
  %37 = sub nsw i32 %36, 160
  %38 = trunc i32 %37 to i8
  store i8 %38, ptr %16, align 1
  %39 = load ptr, ptr %11, align 8
  %40 = load i8, ptr %16, align 1
  %41 = zext i8 %40 to i32
  %42 = ashr i32 %41, 4
  %43 = sext i32 %42 to i64
  %44 = getelementptr inbounds i16, ptr %39, i64 %43
  %45 = load i16, ptr %44, align 2
  %46 = zext i16 %45 to i32
  %47 = load i8, ptr %16, align 1
  %48 = zext i8 %47 to i32
  %49 = and i32 %48, 15
  %50 = shl i32 1, %49
  %51 = and i32 %46, %50
  %52 = icmp ne i32 %51, 0
  br i1 %52, label %53, label %57

53:                                               ; preds = %34
  %54 = load i8, ptr %9, align 1
  %55 = zext i8 %54 to i32
  %56 = load ptr, ptr %15, align 8
  store i32 %55, ptr %56, align 4
  store i32 1, ptr %8, align 4
  br label %87

57:                                               ; preds = %34
  %58 = load i8, ptr %16, align 1
  %59 = zext i8 %58 to i32
  %60 = load i32, ptr %14, align 4
  %61 = icmp slt i32 %59, %60
  br i1 %61, label %62, label %78

62:                                               ; preds = %57
  %63 = load ptr, ptr %13, align 8
  %64 = load i8, ptr %16, align 1
  %65 = zext i8 %64 to i64
  %66 = getelementptr inbounds i8, ptr %63, i64 %65
  %67 = load i8, ptr %66, align 1
  %68 = sext i8 %67 to i32
  store i32 %68, ptr %17, align 4
  %69 = icmp ne i32 %68, -1
  br i1 %69, label %70, label %78

70:                                               ; preds = %62
  %71 = load ptr, ptr %12, align 8
  %72 = load i32, ptr %17, align 4
  %73 = sext i32 %72 to i64
  %74 = getelementptr inbounds i16, ptr %71, i64 %73
  %75 = load i16, ptr %74, align 2
  %76 = zext i16 %75 to i32
  %77 = load ptr, ptr %15, align 8
  store i32 %76, ptr %77, align 4
  store i32 1, ptr %8, align 4
  br label %87

78:                                               ; preds = %62, %57
  %79 = load i32, ptr %10, align 4
  %80 = and i32 %79, 1
  %81 = icmp ne i32 %80, 0
  br i1 %81, label %82, label %86

82:                                               ; preds = %78
  %83 = load i8, ptr %9, align 1
  %84 = zext i8 %83 to i32
  %85 = load ptr, ptr %15, align 8
  store i32 %84, ptr %85, align 4
  store i32 1, ptr %8, align 4
  br label %87

86:                                               ; preds = %78
  store i32 0, ptr %8, align 4
  br label %87

87:                                               ; preds = %86, %82, %70, %53, %30, %29
  %88 = load i32, ptr %8, align 4
  ret i32 %88
}

; Function Attrs: nounwind uwtable
define internal i32 @zueci_iso8859_5_u(ptr noundef %0, i32 noundef %1, i32 noundef %2, ptr noundef %3) #0 {
  %5 = alloca ptr, align 8
  %6 = alloca i32, align 4
  %7 = alloca i32, align 4
  %8 = alloca ptr, align 8
  store ptr %0, ptr %5, align 8
  store i32 %1, ptr %6, align 4
  store i32 %2, ptr %7, align 4
  store ptr %3, ptr %8, align 8
  %9 = load ptr, ptr %5, align 8
  %10 = load i8, ptr %9, align 1
  %11 = load i32, ptr %7, align 4
  %12 = load ptr, ptr %8, align 8
  %13 = call i32 @zueci_iso8859_u(i8 noundef zeroext %10, i32 noundef %11, ptr noundef @zueci_iso8859_5_s, ptr noundef @zueci_iso8859_5_u_u, ptr noundef @zueci_iso8859_5_sb_u, i32 noundef 96, ptr noundef %12)
  ret i32 %13
}